target datalayout = "e-m:e-p270:32:32-p271:32:32-p272:64:64-i64:64-i128:128-f80:128-n8:16:32:64-S128"
target triple = "x86_64-pc-linux-gnu"

%struct.Vec_Int_t_ = type { i32, i32, ptr }

; Function Attrs: inlinehint nounwind uwtable
define internal void @Vec_IntGrow(ptr noundef %0, i32 noundef %1) #3 {
  %3 = alloca ptr, align 8
  %4 = alloca i32, align 4
  store ptr %0, ptr %3, align 8, !tbaa !44
  store i32 %1, ptr %4, align 4, !tbaa !10
  %5 = load ptr, ptr %3, align 8, !tbaa !44
  %6 = getelementptr inbounds nuw %struct.Vec_Int_t_, ptr %5, i32 0, i32 0
  %7 = load i32, ptr %6, align 8, !tbaa !51
  %8 = load i32, ptr %4, align 4, !tbaa !10
  %9 = icmp sge i32 %7, %8
  br i1 %9, label %10, label %11

10:                                               ; preds = %2
  br label %36

11:                                               ; preds = %2
  %12 = load ptr, ptr %3, align 8, !tbaa !44
  %13 = getelementptr inbounds nuw %struct.Vec_Int_t_, ptr %12, i32 0, i32 2
  %14 = load ptr, ptr %13, align 8, !tbaa !52
  %15 = icmp ne ptr %14, null
  br i1 %15, label %16, label %24

16:                                               ; preds = %11
  %17 = load ptr, ptr %3, align 8, !tbaa !44
  %18 = getelementptr inbounds nuw %struct.Vec_Int_t_, ptr %17, i32 0, i32 2
  %19 = load ptr, ptr %18, align 8, !tbaa !52
  %20 = load i32, ptr %4, align 4, !tbaa !10
  %21 = sext i32 %20 to i64
  %22 = mul i64 4, %21
  %23 = call ptr @realloc(ptr noundef %19, i64 noundef %22) #18
  br label %29

24:                                               ; preds = %11
  %25 = load i32, ptr %4, align 4, !tbaa !10
  %26 = sext i32 %25 to i64
  %27 = mul i64 4, %26
  %28 = call noalias ptr @malloc(i64 noundef %27) #16
  br label %29

29:                                               ; preds = %24, %16
  %30 = phi ptr [ %23, %16 ], [ %28, %24 ]
  %31 = load ptr, ptr %3, align 8, !tbaa !44
  %32 = getelementptr inbounds nuw %struct.Vec_Int_t_, ptr %31, i32 0, i32 2
  store ptr %30, ptr %32, align 8, !tbaa !52
  %33 = load i32, ptr %4, align 4, !tbaa !10
  %34 = load ptr, ptr %3, align 8, !tbaa !44
  %35 = getelementptr inbounds nuw %struct.Vec_Int_t_, ptr %34, i32 0, i32 0
  store i32 %33, ptr %35, align 8, !tbaa !51
  br label %36

36:                                               ; preds = %29, %10
  ret void
}

; Function Attrs: inlinehint nounwind uwtable
define internal i32 @Exp_IsConst(ptr noundef %0) #3 {
  %2 = alloca ptr, align 8
  store ptr %0, ptr %2, align 8, !tbaa !44
  %3 = load ptr, ptr %2, align 8, !tbaa !44
  %4 = call i32 @Vec_IntEntry(ptr noundef %3, i32 noundef 0)
  %5 = icmp eq i32 %4, -1
  br i1 %5, label %10, label %6

6:                                                ; preds = %1
  %7 = load ptr, ptr %2, align 8, !tbaa !44
  %8 = call i32 @Vec_IntEntry(ptr noundef %7, i32 noundef 0)
  %9 = icmp eq i32 %8, -2
  br label %10

10:                                               ; preds = %6, %1
  %11 = phi i1 [ true, %1 ], [ %9, %6 ]
  %12 = zext i1 %11 to i32
  ret i32 %12
}

; Function Attrs: inlinehint nounwind uwtable
define internal i32 @Vec_IntSize(ptr noundef %0) #3 {
  %2 = alloca ptr, align 8
  store ptr %0, ptr %2, align 8, !tbaa !44
  %3 = load ptr, ptr %2, align 8, !tbaa !44
  %4 = getelementptr inbounds nuw %struct.Vec_Int_t_, ptr %3, i32 0, i32 1
  %5 = load i32, ptr %4, align 4, !tbaa !50
  ret i32 %5
}

; Function Attrs: inlinehint nounwind uwtable
define internal i32 @Vec_IntEntryLast(ptr noundef %0) #3 {
  %2 = alloca ptr, align 8
  store ptr %0, ptr %2, align 8, !tbaa !44
  %3 = load ptr, ptr %2, align 8, !tbaa !44
  %4 = getelementptr inbounds nuw %struct.Vec_Int_t_, ptr %3, i32 0, i32 2
  %5 = load ptr, ptr %4, align 8, !tbaa !52
  %6 = load ptr, ptr %2, align 8, !tbaa !44
  %7 = getelementptr inbounds nuw %struct.Vec_Int_t_, ptr %6, i32 0, i32 1
  %8 = load i32, ptr %7, align 4, !tbaa !50
  %9 = sub nsw i32 %8, 1
  %10 = sext i32 %9 to i64
  %11 = getelementptr inbounds i32, ptr %5, i64 %10
  %12 = load i32, ptr %11, align 4, !tbaa !10
  ret i32 %12
}

; Function Attrs: inlinehint nounwind uwtable
define internal i32 @Exp_NodeNum(ptr noundef %0) #3 {
  %2 = alloca ptr, align 8
  store ptr %0, ptr %2, align 8, !tbaa !44
  %3 = load ptr, ptr %2, align 8, !tbaa !44
  %4 = call i32 @Vec_IntSize(ptr noundef %3)
  %5 = sdiv i32 %4, 2
  ret i32 %5
}

; Function Attrs: inlinehint nounwind uwtable
define internal void @Vec_IntPush(ptr noundef %0, i32 noundef %1) #3 {
  %3 = alloca ptr, align 8
  %4 = alloca i32, align 4
  store ptr %0, ptr %3, align 8, !tbaa !44
  store i32 %1, ptr %4, align 4, !tbaa !10
  %5 = load ptr, ptr %3, align 8, !tbaa !44
  %6 = getelementptr inbounds nuw %struct.Vec_Int_t_, ptr %5, i32 0, i32 1
  %7 = load i32, ptr %6, align 4, !tbaa !50
  %8 = load ptr, ptr %3, align 8, !tbaa !44
  %9 = getelementptr inbounds nuw %struct.Vec_Int_t_, ptr %8, i32 0, i32 0
  %10 = load i32, ptr %9, align 8, !tbaa !51
  %11 = icmp eq i32 %7, %10
  br i1 %11, label %12, label %26

12:                                               ; preds = %2
  %13 = load ptr, ptr %3, align 8, !tbaa !44
  %14 = getelementptr inbounds nuw %struct.Vec_Int_t_, ptr %13, i32 0, i32 0
  %15 = load i32, ptr %14, align 8, !tbaa !51
  %16 = icmp slt i32 %15, 16
  br i1 %16, label %17, label %19

17:                                               ; preds = %12
  %18 = load ptr, ptr %3, align 8, !tbaa !44
  call void @Vec_IntGrow(ptr noundef %18, i32 noundef 16)
  br label %25

19:                                               ; preds = %12
  %20 = load ptr, ptr %3, align 8, !tbaa !44
  %21 = load ptr, ptr %3, align 8, !tbaa !44
  %22 = getelementptr inbounds nuw %struct.Vec_Int_t_, ptr %21, i32 0, i32 0
  %23 = load i32, ptr %22, align 8, !tbaa !51
  %24 = mul nsw i32 2, %23
  call void @Vec_IntGrow(ptr noundef %20, i32 noundef %24)
  br label %25

25:                                               ; preds = %19, %17
  br label %26

26:                                               ; preds = %25, %2
  %27 = load i32, ptr %4, align 4, !tbaa !10
  %28 = load ptr, ptr %3, align 8, !tbaa !44
  %29 = getelementptr inbounds nuw %struct.Vec_Int_t_, ptr %28, i32 0, i32 2
  %30 = load ptr, ptr %29, align 8, !tbaa !52
  %31 = load ptr, ptr %3, align 8, !tbaa !44
  %32 = getelementptr inbounds nuw %struct.Vec_Int_t_, ptr %31, i32 0, i32 1
  %33 = load i32, ptr %32, align 4, !tbaa !50
  %34 = add nsw i32 %33, 1
  store i32 %34, ptr %32, align 4, !tbaa !50
  %35 = sext i32 %33 to i64
  %36 = getelementptr inbounds i32, ptr %30, i64 %35
  store i32 %27, ptr %36, align 4, !tbaa !10
  ret void
}

; Function Attrs: inlinehint nounwind uwtable
define internal void @Vec_IntClear(ptr noundef %0) #3 {
  %2 = alloca ptr, align 8
  store ptr %0, ptr %2, align 8, !tbaa !44
  %3 = load ptr, ptr %2, align 8, !tbaa !44
  %4 = getelementptr inbounds nuw %struct.Vec_Int_t_, ptr %3, i32 0, i32 1
  store i32 0, ptr %4, align 4, !tbaa !50
  ret void
}

; Function Attrs: inlinehint nounwind uwtable
define internal i32 @Abc_LitNotCond(i32 noundef %0, i32 noundef %1) #3 {
  %3 = alloca i32, align 4
  %4 = alloca i32, align 4
  store i32 %0, ptr %3, align 4, !tbaa !10
  store i32 %1, ptr %4, align 4, !tbaa !10
  %5 = load i32, ptr %3, align 4, !tbaa !10
  %6 = load i32, ptr %4, align 4, !tbaa !10
  %7 = icmp sgt i32 %6, 0
  %8 = zext i1 %7 to i32
  %9 = xor i32 %5, %8
  ret i32 %9
}

; Function Attrs: inlinehint nounwind uwtable
define internal i32 @Vec_IntEntry(ptr noundef %0, i32 noundef %1) #3 {
  %3 = alloca ptr, align 8
  %4 = alloca i32, align 4
  store ptr %0, ptr %3, align 8, !tbaa !44
  store i32 %1, ptr %4, align 4, !tbaa !10
  %5 = load ptr, ptr %3, align 8, !tbaa !44
  %6 = getelementptr inbounds nuw %struct.Vec_Int_t_, ptr %5, i32 0, i32 2
  %7 = load ptr, ptr %6, align 8, !tbaa !52
  %8 = load i32, ptr %4, align 4, !tbaa !10
  %9 = sext i32 %8 to i64
  %10 = getelementptr inbounds i32, ptr %7, i64 %9
  %11 = load i32, ptr %10, align 4, !tbaa !10
  ret i32 %11
}

; Function Attrs: inlinehint nounwind uwtable
define internal i32 @Exp_IsLit(ptr noundef %0) #3 {
  %2 = alloca ptr, align 8
  store ptr %0, ptr %2, align 8, !tbaa !44
  %3 = load ptr, ptr %2, align 8, !tbaa !44
  %4 = call i32 @Vec_IntSize(ptr noundef %3)
  %5 = icmp eq i32 %4, 1
  br i1 %5, label %6, label %11

6:                                                ; preds = %1
  %7 = load ptr, ptr %2, align 8, !tbaa !44
  %8 = call i32 @Exp_IsConst(ptr noundef %7)
  %9 = icmp ne i32 %8, 0
  %10 = xor i1 %9, true
  br label %11

11:                                               ; preds = %6, %1
  %12 = phi i1 [ false, %1 ], [ %10, %6 ]
  %13 = zext i1 %12 to i32
  ret i32 %13
}

; Function Attrs: inlinehint nounwind uwtable
define internal i32 @Exp_IsConst1(ptr noundef %0) #3 {
  %2 = alloca ptr, align 8
  store ptr %0, ptr %2, align 8, !tbaa !44
  %3 = load ptr, ptr %2, align 8, !tbaa !44
  %4 = call i32 @Vec_IntEntry(ptr noundef %3, i32 noundef 0)
  %5 = icmp eq i32 %4, -2
  %6 = zext i1 %5 to i32
  ret i32 %6
}

; Function Attrs: inlinehint nounwind uwtable
define internal i32 @Exp_IsConst0(ptr noundef %0) #3 {
  %2 = alloca ptr, align 8
  store ptr %0, ptr %2, align 8, !tbaa !44
  %3 = load ptr, ptr %2, align 8, !tbaa !44
  %4 = call i32 @Vec_IntEntry(ptr noundef %3, i32 noundef 0)
  %5 = icmp eq i32 %4, -1
  %6 = zext i1 %5 to i32
  ret i32 %6
}

; Function Attrs: nounwind uwtable
define i32 @Mio_LibGateSimulateGia(ptr noundef %0, ptr noundef %1, ptr noundef %2, ptr noundef %3) #0 {
  %5 = alloca i32, align 4
  %6 = alloca ptr, align 8
  %7 = alloca ptr, align 8
  %8 = alloca ptr, align 8
  %9 = alloca ptr, align 8
  %10 = alloca i32, align 4
  %11 = alloca i32, align 4
  %12 = alloca ptr, align 8
  %13 = alloca i32, align 4
  %14 = alloca i32, align 4
  %15 = alloca i32, align 4
  %16 = alloca i32, align 4
  %17 = alloca i32, align 4
  %18 = alloca i32, align 4
  %19 = alloca i32, align 4
  store ptr %0, ptr %6, align 8, !tbaa !130
  store ptr %1, ptr %7, align 8, !tbaa !35
  store ptr %2, ptr %8, align 8, !tbaa !78
  store ptr %3, ptr %9, align 8, !tbaa !44
  call void @llvm.lifetime.start.p0(i64 4, ptr %10) #14
  call void @llvm.lifetime.start.p0(i64 4, ptr %11) #14
  %20 = load ptr, ptr %7, align 8, !tbaa !35
  %21 = call i32 @Mio_GateReadPinNum(ptr noundef %20)
  store i32 %21, ptr %11, align 4, !tbaa !10
  call void @llvm.lifetime.start.p0(i64 8, ptr %12) #14
  %22 = load ptr, ptr %7, align 8, !tbaa !35
  %23 = call ptr @Mio_GateReadExpr(ptr noundef %22)
  store ptr %23, ptr %12, align 8, !tbaa !44
  %24 = load ptr, ptr %12, align 8, !tbaa !44
  %25 = call i32 @Exp_IsConst0(ptr noundef %24)
  %26 = icmp ne i32 %25, 0
  br i1 %26, label %27, label %28

27:                                               ; preds = %4
  store i32 0, ptr %5, align 4
  store i32 1, ptr %13, align 4
  br label %121

28:                                               ; preds = %4
  %29 = load ptr, ptr %12, align 8, !tbaa !44
  %30 = call i32 @Exp_IsConst1(ptr noundef %29)
  %31 = icmp ne i32 %30, 0
  br i1 %31, label %32, label %33

32:                                               ; preds = %28
  store i32 1, ptr %5, align 4
  store i32 1, ptr %13, align 4
  br label %121

33:                                               ; preds = %28
  %34 = load ptr, ptr %12, align 8, !tbaa !44
  %35 = call i32 @Exp_IsLit(ptr noundef %34)
  %36 = icmp ne i32 %35, 0
  br i1 %36, label %37, label %51

37:                                               ; preds = %33
  call void @llvm.lifetime.start.p0(i64 4, ptr %14) #14
  %38 = load ptr, ptr %12, align 8, !tbaa !44
  %39 = call i32 @Vec_IntEntry(ptr noundef %38, i32 noundef 0)
  %40 = ashr i32 %39, 1
  store i32 %40, ptr %14, align 4, !tbaa !10
  call void @llvm.lifetime.start.p0(i64 4, ptr %15) #14
  %41 = load ptr, ptr %12, align 8, !tbaa !44
  %42 = call i32 @Vec_IntEntry(ptr noundef %41, i32 noundef 0)
  %43 = and i32 %42, 1
  store i32 %43, ptr %15, align 4, !tbaa !10
  %44 = load ptr, ptr %8, align 8, !tbaa !78
  %45 = load i32, ptr %14, align 4, !tbaa !10
  %46 = sext i32 %45 to i64
  %47 = getelementptr inbounds i32, ptr %44, i64 %46
  %48 = load i32, ptr %47, align 4, !tbaa !10
  %49 = load i32, ptr %15, align 4, !tbaa !10
  %50 = call i32 @Abc_LitNotCond(i32 noundef %48, i32 noundef %49)
  store i32 %50, ptr %5, align 4
  store i32 1, ptr %13, align 4
  call void @llvm.lifetime.end.p0(i64 4, ptr %15) #14
  call void @llvm.lifetime.end.p0(i64 4, ptr %14) #14
  br label %121

51:                                               ; preds = %33
  %52 = load ptr, ptr %9, align 8, !tbaa !44
  call void @Vec_IntClear(ptr noundef %52)
  store i32 0, ptr %10, align 4, !tbaa !10
  br label %53

53:                                               ; preds = %64, %51
  %54 = load i32, ptr %10, align 4, !tbaa !10
  %55 = load i32, ptr %11, align 4, !tbaa !10
  %56 = icmp slt i32 %54, %55
  br i1 %56, label %57, label %67

57:                                               ; preds = %53
  %58 = load ptr, ptr %9, align 8, !tbaa !44
  %59 = load ptr, ptr %8, align 8, !tbaa !78
  %60 = load i32, ptr %10, align 4, !tbaa !10
  %61 = sext i32 %60 to i64
  %62 = getelementptr inbounds i32, ptr %59, i64 %61
  %63 = load i32, ptr %62, align 4, !tbaa !10
  call void @Vec_IntPush(ptr noundef %58, i32 noundef %63)
  br label %64

64:                                               ; preds = %57
  %65 = load i32, ptr %10, align 4, !tbaa !10
  %66 = add nsw i32 %65, 1
  store i32 %66, ptr %10, align 4, !tbaa !10
  br label %53, !llvm.loop !132

67:                                               ; preds = %53
  store i32 0, ptr %10, align 4, !tbaa !10
  br label %68

68:                                               ; preds = %111, %67
  %69 = load i32, ptr %10, align 4, !tbaa !10
  %70 = load ptr, ptr %12, align 8, !tbaa !44
  %71 = call i32 @Exp_NodeNum(ptr noundef %70)
  %72 = icmp slt i32 %69, %71
  br i1 %72, label %73, label %114

73:                                               ; preds = %68
  call void @llvm.lifetime.start.p0(i64 4, ptr %16) #14
  %74 = load ptr, ptr %12, align 8, !tbaa !44
  %75 = load i32, ptr %10, align 4, !tbaa !10
  %76 = mul nsw i32 2, %75
  %77 = add nsw i32 %76, 0
  %78 = call i32 @Vec_IntEntry(ptr noundef %74, i32 noundef %77)
  %79 = ashr i32 %78, 1
  store i32 %79, ptr %16, align 4, !tbaa !10
  call void @llvm.lifetime.start.p0(i64 4, ptr %17) #14
  %80 = load ptr, ptr %12, align 8, !tbaa !44
  %81 = load i32, ptr %10, align 4, !tbaa !10
  %82 = mul nsw i32 2, %81
  %83 = add nsw i32 %82, 1
  %84 = call i32 @Vec_IntEntry(ptr noundef %80, i32 noundef %83)
  %85 = ashr i32 %84, 1
  store i32 %85, ptr %17, align 4, !tbaa !10
  call void @llvm.lifetime.start.p0(i64 4, ptr %18) #14
  %86 = load ptr, ptr %12, align 8, !tbaa !44
  %87 = load i32, ptr %10, align 4, !tbaa !10
  %88 = mul nsw i32 2, %87
  %89 = add nsw i32 %88, 0
  %90 = call i32 @Vec_IntEntry(ptr noundef %86, i32 noundef %89)
  %91 = and i32 %90, 1
  store i32 %91, ptr %18, align 4, !tbaa !10
  call void @llvm.lifetime.start.p0(i64 4, ptr %19) #14
  %92 = load ptr, ptr %12, align 8, !tbaa !44
  %93 = load i32, ptr %10, align 4, !tbaa !10
  %94 = mul nsw i32 2, %93
  %95 = add nsw i32 %94, 1
  %96 = call i32 @Vec_IntEntry(ptr noundef %92, i32 noundef %95)
  %97 = and i32 %96, 1
  store i32 %97, ptr %19, align 4, !tbaa !10
  %98 = load ptr, ptr %9, align 8, !tbaa !44
  %99 = load ptr, ptr %6, align 8, !tbaa !130
  %100 = load ptr, ptr %9, align 8, !tbaa !44
  %101 = load i32, ptr %16, align 4, !tbaa !10
  %102 = call i32 @Vec_IntEntry(ptr noundef %100, i32 noundef %101)
  %103 = load i32, ptr %18, align 4, !tbaa !10
  %104 = call i32 @Abc_LitNotCond(i32 noundef %102, i32 noundef %103)
  %105 = load ptr, ptr %9, align 8, !tbaa !44
  %106 = load i32, ptr %17, align 4, !tbaa !10
  %107 = call i32 @Vec_IntEntry(ptr noundef %105, i32 noundef %106)
  %108 = load i32, ptr %19, align 4, !tbaa !10
  %109 = call i32 @Abc_LitNotCond(i32 noundef %107, i32 noundef %108)
  %110 = call i32 @Gia_ManHashAnd(ptr noundef %99, i32 noundef %104, i32 noundef %109)
  call void @Vec_IntPush(ptr noundef %98, i32 noundef %110)
  call void @llvm.lifetime.end.p0(i64 4, ptr %19) #14
  call void @llvm.lifetime.end.p0(i64 4, ptr %18) #14
  call void @llvm.lifetime.end.p0(i64 4, ptr %17) #14
  call void @llvm.lifetime.end.p0(i64 4, ptr %16) #14
  br label %111

111:                                              ; preds = %73
  %112 = load i32, ptr %10, align 4, !tbaa !10
  %113 = add nsw i32 %112, 1
  store i32 %113, ptr %10, align 4, !tbaa !10
  br label %68, !llvm.loop !133

114:                                              ; preds = %68
  %115 = load ptr, ptr %9, align 8, !tbaa !44
  %116 = call i32 @Vec_IntEntryLast(ptr noundef %115)
  %117 = load ptr, ptr %12, align 8, !tbaa !44
  %118 = call i32 @Vec_IntEntryLast(ptr noundef %117)
  %119 = and i32 %118, 1
  %120 = call i32 @Abc_LitNotCond(i32 noundef %116, i32 noundef %119)
  store i32 %120, ptr %5, align 4
  store i32 1, ptr %13, align 4
  br label %121

121:                                              ; preds = %114, %37, %32, %27
  call void @llvm.lifetime.end.p0(i64 8, ptr %12) #14
  call void @llvm.lifetime.end.p0(i64 4, ptr %11) #14
  call void @llvm.lifetime.end.p0(i64 4, ptr %10) #14
  %122 = load i32, ptr %5, align 4
  ret i32 %122
}