; Function Attrs: nounwind uwtable
define i32 @Mio_LibGateSimulateGia(ptr noundef %0, ptr noundef %1, ptr noundef readonly captures(none) %2, ptr noundef captures(none) %3) local_unnamed_addr #0 {
  %5 = tail call i32 @Mio_GateReadPinNum(ptr noundef %1) #32
  %6 = tail call ptr @Mio_GateReadExpr(ptr noundef %1) #32
  %7 = getelementptr i8, ptr %6, i64 8
  %.val53 = load ptr, ptr %7, align 8, !tbaa !36
  %.val53.val = load i32, ptr %.val53, align 4, !tbaa !34
  switch i32 %.val53.val, label %8 [
    i32 -1, label %112
    i32 -2, label %.fold.split
  ]

8:                                                ; preds = %4
  %9 = getelementptr i8, ptr %6, i64 4
  %.val.i = load i32, ptr %9, align 4, !tbaa !37
  %10 = icmp eq i32 %.val.i, 1
  br i1 %10, label %Exp_IsLit.exit, label %Exp_IsLit.exit.thread

Exp_IsLit.exit:                                   ; preds = %8
  %11 = ashr i32 %.val53.val, 1
  %12 = and i32 %.val53.val, 1
  %13 = sext i32 %11 to i64
  %14 = getelementptr inbounds i32, ptr %2, i64 %13
  %15 = load i32, ptr %14, align 4, !tbaa !34
  %16 = xor i32 %15, %12
  br label %112

Exp_IsLit.exit.thread:                            ; preds = %8
  %17 = getelementptr inbounds nuw i8, ptr %3, i64 4
  store i32 0, ptr %17, align 4, !tbaa !37
  %18 = icmp sgt i32 %5, 0
  br i1 %18, label %.lr.ph, label %.preheader

.lr.ph:                                           ; preds = %Exp_IsLit.exit.thread
  %.phi.trans.insert.i = getelementptr inbounds nuw i8, ptr %3, i64 8
  %wide.trip.count = zext nneg i32 %5 to i64
  br label %21

.preheader:                                       ; preds = %Vec_IntPush.exit, %Exp_IsLit.exit.thread
  %.val4865 = load i32, ptr %9, align 4, !tbaa !37
  %19 = icmp sgt i32 %.val4865, 1
  %20 = getelementptr i8, ptr %3, i64 8
  %.val41.pre = load ptr, ptr %20, align 8, !tbaa !36
  br i1 %19, label %.lr.ph67, label %._crit_edge

thread-pre-split:                                 ; preds = %Vec_IntPush.exit
  %.pr = load i32, ptr %17, align 4, !tbaa !37
  br label %21

21:                                               ; preds = %thread-pre-split, %.lr.ph
  %22 = phi i32 [ %.pr, %thread-pre-split ], [ 0, %.lr.ph ]
  %indvars.iv = phi i64 [ %indvars.iv.next, %thread-pre-split ], [ 0, %.lr.ph ]
  %23 = getelementptr inbounds nuw i32, ptr %2, i64 %indvars.iv
  %24 = load i32, ptr %23, align 4, !tbaa !34
  %25 = load i32, ptr %3, align 8, !tbaa !35
  %26 = icmp eq i32 %22, %25
  br i1 %26, label %27, label %.Vec_IntGrow.exit10_crit_edge.i

.Vec_IntGrow.exit10_crit_edge.i:                  ; preds = %21
  %.pre.i = load ptr, ptr %.phi.trans.insert.i, align 8, !tbaa !36
  br label %Vec_IntPush.exit

27:                                               ; preds = %21
  %28 = icmp slt i32 %22, 16
  br i1 %28, label %29, label %36

29:                                               ; preds = %27
  %30 = load ptr, ptr %.phi.trans.insert.i, align 8, !tbaa !36
  %.not9.i.i = icmp eq ptr %30, null
  br i1 %.not9.i.i, label %33, label %31

31:                                               ; preds = %29
  %32 = tail call dereferenceable_or_null(64) ptr @realloc(ptr noundef nonnull %30, i64 noundef 64) #35
  br label %Vec_IntGrow.exit.i

33:                                               ; preds = %29
  %34 = tail call noalias dereferenceable_or_null(64) ptr @malloc(i64 noundef 64) #34
  br label %Vec_IntGrow.exit.i

Vec_IntGrow.exit.i:                               ; preds = %33, %31
  %35 = phi ptr [ %32, %31 ], [ %34, %33 ]
  store ptr %35, ptr %.phi.trans.insert.i, align 8, !tbaa !36
  store i32 16, ptr %3, align 8, !tbaa !35
  br label %Vec_IntPush.exit

36:                                               ; preds = %27
  %37 = shl nuw nsw i32 %22, 1
  %38 = load ptr, ptr %.phi.trans.insert.i, align 8, !tbaa !36
  %.not9.i9.i = icmp eq ptr %38, null
  %39 = zext nneg i32 %37 to i64
  %40 = shl nuw nsw i64 %39, 2
  br i1 %.not9.i9.i, label %43, label %41

41:                                               ; preds = %36
  %42 = tail call ptr @realloc(ptr noundef nonnull %38, i64 noundef %40) #35
  br label %45

43:                                               ; preds = %36
  %44 = tail call noalias ptr @malloc(i64 noundef %40) #34
  br label %45

45:                                               ; preds = %43, %41
  %46 = phi ptr [ %42, %41 ], [ %44, %43 ]
  store ptr %46, ptr %.phi.trans.insert.i, align 8, !tbaa !36
  store i32 %37, ptr %3, align 8, !tbaa !35
  br label %Vec_IntPush.exit

Vec_IntPush.exit:                                 ; preds = %.Vec_IntGrow.exit10_crit_edge.i, %Vec_IntGrow.exit.i, %45
  %47 = phi ptr [ %.pre.i, %.Vec_IntGrow.exit10_crit_edge.i ], [ %46, %45 ], [ %35, %Vec_IntGrow.exit.i ]
  %48 = load i32, ptr %17, align 4, !tbaa !37
  %49 = add nsw i32 %48, 1
  store i32 %49, ptr %17, align 4, !tbaa !37
  %50 = sext i32 %48 to i64
  %51 = getelementptr inbounds i32, ptr %47, i64 %50
  store i32 %24, ptr %51, align 4, !tbaa !34
  %indvars.iv.next = add nuw nsw i64 %indvars.iv, 1
  %exitcond.not = icmp eq i64 %indvars.iv.next, %wide.trip.count
  br i1 %exitcond.not, label %.preheader, label %thread-pre-split, !llvm.loop !112

.lr.ph67:                                         ; preds = %.preheader, %Vec_IntPush.exit61
  %.val41 = phi ptr [ %94, %Vec_IntPush.exit61 ], [ %.val41.pre, %.preheader ]
  %indvars.iv70 = phi i64 [ %indvars.iv.next71, %Vec_IntPush.exit61 ], [ 0, %.preheader ]
  %52 = shl nuw nsw i64 %indvars.iv70, 1
  %.val45 = load ptr, ptr %7, align 8, !tbaa !36
  %53 = getelementptr inbounds nuw i32, ptr %.val45, i64 %52
  %54 = load i32, ptr %53, align 4, !tbaa !34
  %55 = ashr i32 %54, 1
  %56 = or disjoint i64 %52, 1
  %57 = getelementptr inbounds nuw i32, ptr %.val45, i64 %56
  %58 = load i32, ptr %57, align 4, !tbaa !34
  %59 = ashr i32 %58, 1
  %60 = and i32 %54, 1
  %61 = and i32 %58, 1
  %62 = sext i32 %55 to i64
  %63 = getelementptr inbounds i32, ptr %.val41, i64 %62
  %64 = load i32, ptr %63, align 4, !tbaa !34
  %65 = xor i32 %64, %60
  %66 = sext i32 %59 to i64
  %67 = getelementptr inbounds i32, ptr %.val41, i64 %66
  %68 = load i32, ptr %67, align 4, !tbaa !34
  %69 = xor i32 %68, %61
  %70 = tail call i32 @Gia_ManHashAnd(ptr noundef %0, i32 noundef %65, i32 noundef %69) #32
  %71 = load i32, ptr %17, align 4, !tbaa !37
  %72 = load i32, ptr %3, align 8, !tbaa !35
  %73 = icmp eq i32 %71, %72
  br i1 %73, label %74, label %.Vec_IntGrow.exit10_crit_edge.i55

.Vec_IntGrow.exit10_crit_edge.i55:                ; preds = %.lr.ph67
  %.pre.i57 = load ptr, ptr %20, align 8, !tbaa !36
  br label %Vec_IntPush.exit61

74:                                               ; preds = %.lr.ph67
  %75 = icmp slt i32 %71, 16
  br i1 %75, label %76, label %83

76:                                               ; preds = %74
  %77 = load ptr, ptr %20, align 8, !tbaa !36
  %.not9.i.i59 = icmp eq ptr %77, null
  br i1 %.not9.i.i59, label %80, label %78

78:                                               ; preds = %76
  %79 = tail call dereferenceable_or_null(64) ptr @realloc(ptr noundef nonnull %77, i64 noundef 64) #35
  br label %Vec_IntGrow.exit.i60

80:                                               ; preds = %76
  %81 = tail call noalias dereferenceable_or_null(64) ptr @malloc(i64 noundef 64) #34
  br label %Vec_IntGrow.exit.i60

Vec_IntGrow.exit.i60:                             ; preds = %80, %78
  %82 = phi ptr [ %79, %78 ], [ %81, %80 ]
  store ptr %82, ptr %20, align 8, !tbaa !36
  store i32 16, ptr %3, align 8, !tbaa !35
  br label %Vec_IntPush.exit61

83:                                               ; preds = %74
  %84 = shl nuw nsw i32 %71, 1
  %85 = load ptr, ptr %20, align 8, !tbaa !36
  %.not9.i9.i58 = icmp eq ptr %85, null
  %86 = zext nneg i32 %84 to i64
  %87 = shl nuw nsw i64 %86, 2
  br i1 %.not9.i9.i58, label %90, label %88

88:                                               ; preds = %83
  %89 = tail call ptr @realloc(ptr noundef nonnull %85, i64 noundef %87) #35
  br label %92

90:                                               ; preds = %83
  %91 = tail call noalias ptr @malloc(i64 noundef %87) #34
  br label %92

92:                                               ; preds = %90, %88
  %93 = phi ptr [ %89, %88 ], [ %91, %90 ]
  store ptr %93, ptr %20, align 8, !tbaa !36
  store i32 %84, ptr %3, align 8, !tbaa !35
  br label %Vec_IntPush.exit61

Vec_IntPush.exit61:                               ; preds = %.Vec_IntGrow.exit10_crit_edge.i55, %Vec_IntGrow.exit.i60, %92
  %94 = phi ptr [ %.pre.i57, %.Vec_IntGrow.exit10_crit_edge.i55 ], [ %93, %92 ], [ %82, %Vec_IntGrow.exit.i60 ]
  %95 = load i32, ptr %17, align 4, !tbaa !37
  %96 = add nsw i32 %95, 1
  store i32 %96, ptr %17, align 4, !tbaa !37
  %97 = sext i32 %95 to i64
  %98 = getelementptr inbounds i32, ptr %94, i64 %97
  store i32 %70, ptr %98, align 4, !tbaa !34
  %indvars.iv.next71 = add nuw nsw i64 %indvars.iv70, 1
  %.val48 = load i32, ptr %9, align 4, !tbaa !37
  %99 = sdiv i32 %.val48, 2
  %100 = sext i32 %99 to i64
  %101 = icmp slt i64 %indvars.iv.next71, %100
  br i1 %101, label %.lr.ph67, label %._crit_edge, !llvm.loop !113

._crit_edge:                                      ; preds = %Vec_IntPush.exit61, %.preheader
  %.val50 = phi ptr [ %.val41.pre, %.preheader ], [ %94, %Vec_IntPush.exit61 ]
  %.val48.lcssa = phi i32 [ %.val4865, %.preheader ], [ %.val48, %Vec_IntPush.exit61 ]
  %.val49 = load i32, ptr %17, align 4, !tbaa !37
  %102 = sext i32 %.val49 to i64
  %103 = getelementptr i32, ptr %.val50, i64 %102
  %104 = getelementptr i8, ptr %103, i64 -4
  %105 = load i32, ptr %104, align 4, !tbaa !34
  %.val52 = load ptr, ptr %7, align 8, !tbaa !36
  %106 = sext i32 %.val48.lcssa to i64
  %107 = getelementptr i32, ptr %.val52, i64 %106
  %108 = getelementptr i8, ptr %107, i64 -4
  %109 = load i32, ptr %108, align 4, !tbaa !34
  %110 = and i32 %109, 1
  %111 = xor i32 %110, %105
  br label %112

.fold.split:                                      ; preds = %4
  br label %112

112:                                              ; preds = %4, %.fold.split, %._crit_edge, %Exp_IsLit.exit
  %.0 = phi i32 [ %16, %Exp_IsLit.exit ], [ %111, %._crit_edge ], [ 0, %4 ], [ 1, %.fold.split ]
  ret i32 %.0
}